target datalayout = "e-m:e-p270:32:32-p271:32:32-p272:64:64-i64:64-i128:128-f80:128-n8:16:32:64-S128"
target triple = "x86_64-unknown-linux-gnu"

%"class.sat::literal" = type { i32 }
%"class.sat::clause" = type { i32, i32, i32, %class.approx_set_tpl, i32, [0 x %"class.sat::literal"] }
%class.approx_set_tpl = type { i32 }

; Function Attrs: mustprogress nounwind uwtable
define linkonce_odr hidden noundef i32 @_ZNK3sat7literal3varEv(ptr noundef nonnull align 4 dereferenceable(4) %this) #4 comdat align 2 {
entry:
  %this.addr = alloca ptr, align 8
  store ptr %this, ptr %this.addr, align 8
  %this1 = load ptr, ptr %this.addr, align 8
  %m_val = getelementptr inbounds %"class.sat::literal", ptr %this1, i32 0, i32 0
  %0 = load i32, ptr %m_val, align 4
  %shr = lshr i32 %0, 1
  ret i32 %shr
}

; Function Attrs: mustprogress nounwind uwtable
define linkonce_odr hidden noundef ptr @_ZNK3sat6clause3endEv(ptr noundef nonnull align 4 dereferenceable(20) %this) #4 comdat align 2 {
entry:
  %this.addr = alloca ptr, align 8
  store ptr %this, ptr %this.addr, align 8
  %this1 = load ptr, ptr %this.addr, align 8
  %m_lits = getelementptr inbounds %"class.sat::clause", ptr %this1, i32 0, i32 5
  %arraydecay = getelementptr inbounds [0 x %"class.sat::literal"], ptr %m_lits, i64 0, i64 0
  %m_size = getelementptr inbounds %"class.sat::clause", ptr %this1, i32 0, i32 1
  %0 = load i32, ptr %m_size, align 4
  %idx.ext = zext i32 %0 to i64
  %add.ptr = getelementptr inbounds %"class.sat::literal", ptr %arraydecay, i64 %idx.ext
  ret ptr %add.ptr
}

; Function Attrs: mustprogress nounwind uwtable
define linkonce_odr hidden noundef ptr @_ZNK3sat6clause5beginEv(ptr noundef nonnull align 4 dereferenceable(20) %this) #4 comdat align 2 {
entry:
  %this.addr = alloca ptr, align 8
  store ptr %this, ptr %this.addr, align 8
  %this1 = load ptr, ptr %this.addr, align 8
  %m_lits = getelementptr inbounds %"class.sat::clause", ptr %this1, i32 0, i32 5
  %arraydecay = getelementptr inbounds [0 x %"class.sat::literal"], ptr %m_lits, i64 0, i64 0
  ret ptr %arraydecay
}

; Function Attrs: mustprogress uwtable
define hidden noundef zeroext i1 @_ZNK3sat6clause8containsEj(ptr noundef nonnull align 4 dereferenceable(20) %this, i32 noundef %v) #5 align 2 {
entry:
  %retval = alloca i1, align 1
  %this.addr = alloca ptr, align 8
  %v.addr = alloca i32, align 4
  %__range1 = alloca ptr, align 8
  %__begin1 = alloca ptr, align 8
  %__end1 = alloca ptr, align 8
  %l = alloca %"class.sat::literal", align 4
  store ptr %this, ptr %this.addr, align 8
  store i32 %v, ptr %v.addr, align 4
  %this1 = load ptr, ptr %this.addr, align 8
  store ptr %this1, ptr %__range1, align 8
  %0 = load ptr, ptr %__range1, align 8
  %call = call noundef ptr @_ZNK3sat6clause5beginEv(ptr noundef nonnull align 4 dereferenceable(20) %0)
  store ptr %call, ptr %__begin1, align 8
  %1 = load ptr, ptr %__range1, align 8
  %call2 = call noundef ptr @_ZNK3sat6clause3endEv(ptr noundef nonnull align 4 dereferenceable(20) %1)
  store ptr %call2, ptr %__end1, align 8
  br label %for.cond

for.cond:                                         ; preds = %for.inc, %entry
  %2 = load ptr, ptr %__begin1, align 8
  %3 = load ptr, ptr %__end1, align 8
  %cmp = icmp ne ptr %2, %3
  br i1 %cmp, label %for.body, label %for.end

for.body:                                         ; preds = %for.cond
  %4 = load ptr, ptr %__begin1, align 8
  call void @llvm.memcpy.p0.p0.i64(ptr align 4 %l, ptr align 4 %4, i64 4, i1 false)
  %call3 = call noundef i32 @_ZNK3sat7literal3varEv(ptr noundef nonnull align 4 dereferenceable(4) %l)
  %5 = load i32, ptr %v.addr, align 4
  %cmp4 = icmp eq i32 %call3, %5
  br i1 %cmp4, label %if.then, label %if.end

if.then:                                          ; preds = %for.body
  store i1 true, ptr %retval, align 1
  br label %return

if.end:                                           ; preds = %for.body
  br label %for.inc

for.inc:                                          ; preds = %if.end
  %6 = load ptr, ptr %__begin1, align 8
  %incdec.ptr = getelementptr inbounds %"class.sat::literal", ptr %6, i32 1
  store ptr %incdec.ptr, ptr %__begin1, align 8
  br label %for.cond

for.end:                                          ; preds = %for.cond
  store i1 false, ptr %retval, align 1
  br label %return

return:                                           ; preds = %for.end, %if.then
  %7 = load i1, ptr %retval, align 1
  ret i1 %7
}